target datalayout = "e-m:e-p270:32:32-p271:32:32-p272:64:64-i64:64-i128:128-f80:128-n8:16:32:64-S128"
target triple = "x86_64-pc-linux-gnu"

%struct.ACLCategoryItem = type { ptr, i64 }
%struct.redisCommand = type { ptr, ptr, ptr, ptr, i32, ptr, ptr, i32, ptr, i32, ptr, i32, ptr, i32, i64, i64, ptr, i32, ptr, i32, ptr, ptr, i64, i64, i64, i64, i32, ptr, ptr, %struct.keySpec, ptr, ptr, ptr }
%struct.keySpec = type { ptr, i64, i32, %union.anon, i32, %union.anon.2 }
%union.anon = type { %struct.anon.1 }
%struct.anon.1 = type { ptr, i32 }
%union.anon.2 = type { %struct.anon.3 }
%struct.anon.3 = type { i32, i32, i32 }

@ACLCommandCategories = internal global ptr null, align 8
@.str.203 = private unnamed_addr constant [4 x i8] c"@%s\00", align 1

; Function Attrs: nounwind uwtable
define dso_local void @addReplyCommandCategories(ptr noundef %0, ptr noundef %1) #0 {
  %3 = alloca ptr, align 8
  %4 = alloca ptr, align 8
  %5 = alloca i32, align 4
  %6 = alloca ptr, align 8
  %7 = alloca i32, align 4
  store ptr %0, ptr %3, align 8, !tbaa !95
  store ptr %1, ptr %4, align 8, !tbaa !108
  call void @llvm.lifetime.start.p0(i64 4, ptr %5) #14
  store i32 0, ptr %5, align 4, !tbaa !17
  call void @llvm.lifetime.start.p0(i64 8, ptr %6) #14
  %8 = load ptr, ptr %3, align 8, !tbaa !95
  %9 = call ptr @addReplyDeferredLen(ptr noundef %8)
  store ptr %9, ptr %6, align 8, !tbaa !32
  call void @llvm.lifetime.start.p0(i64 4, ptr %7) #14
  store i32 0, ptr %7, align 4, !tbaa !17
  br label %10

10:                                               ; preds = %42, %2
  %11 = load ptr, ptr @ACLCommandCategories, align 8, !tbaa !12
  %12 = load i32, ptr %7, align 4, !tbaa !17
  %13 = sext i32 %12 to i64
  %14 = getelementptr inbounds %struct.ACLCategoryItem, ptr %11, i64 %13
  %15 = getelementptr inbounds nuw %struct.ACLCategoryItem, ptr %14, i32 0, i32 1
  %16 = load i64, ptr %15, align 8, !tbaa !16
  %17 = icmp ne i64 %16, 0
  br i1 %17, label %19, label %18

18:                                               ; preds = %10
  call void @llvm.lifetime.end.p0(i64 4, ptr %7) #14
  br label %45

19:                                               ; preds = %10
  %20 = load ptr, ptr %4, align 8, !tbaa !108
  %21 = getelementptr inbounds nuw %struct.redisCommand, ptr %20, i32 0, i32 15
  %22 = load i64, ptr %21, align 8, !tbaa !122
  %23 = load ptr, ptr @ACLCommandCategories, align 8, !tbaa !12
  %24 = load i32, ptr %7, align 4, !tbaa !17
  %25 = sext i32 %24 to i64
  %26 = getelementptr inbounds %struct.ACLCategoryItem, ptr %23, i64 %25
  %27 = getelementptr inbounds nuw %struct.ACLCategoryItem, ptr %26, i32 0, i32 1
  %28 = load i64, ptr %27, align 8, !tbaa !16
  %29 = and i64 %22, %28
  %30 = icmp ne i64 %29, 0
  br i1 %30, label %31, label %41

31:                                               ; preds = %19
  %32 = load ptr, ptr %3, align 8, !tbaa !95
  %33 = load ptr, ptr @ACLCommandCategories, align 8, !tbaa !12
  %34 = load i32, ptr %7, align 4, !tbaa !17
  %35 = sext i32 %34 to i64
  %36 = getelementptr inbounds %struct.ACLCategoryItem, ptr %33, i64 %35
  %37 = getelementptr inbounds nuw %struct.ACLCategoryItem, ptr %36, i32 0, i32 0
  %38 = load ptr, ptr %37, align 8, !tbaa !14
  call void (ptr, ptr, ...) @addReplyStatusFormat(ptr noundef %32, ptr noundef @.str.203, ptr noundef %38)
  %39 = load i32, ptr %5, align 4, !tbaa !17
  %40 = add nsw i32 %39, 1
  store i32 %40, ptr %5, align 4, !tbaa !17
  br label %41

41:                                               ; preds = %31, %19
  br label %42

42:                                               ; preds = %41
  %43 = load i32, ptr %7, align 4, !tbaa !17
  %44 = add nsw i32 %43, 1
  store i32 %44, ptr %7, align 4, !tbaa !17
  br label %10, !llvm.loop !253

45:                                               ; preds = %18
  %46 = load ptr, ptr %3, align 8, !tbaa !95
  %47 = load ptr, ptr %6, align 8, !tbaa !32
  %48 = load i32, ptr %5, align 4, !tbaa !17
  %49 = sext i32 %48 to i64
  call void @setDeferredSetLen(ptr noundef %46, ptr noundef %47, i64 noundef %49)
  call void @llvm.lifetime.end.p0(i64 8, ptr %6) #14
  call void @llvm.lifetime.end.p0(i64 4, ptr %5) #14
  ret void
}