; Function Attrs: nounwind uwtable
define dso_local void @addReplyCommandCategories(ptr noundef %0, ptr noundef readonly captures(none) %1) local_unnamed_addr #0 {
  %3 = tail call ptr @addReplyDeferredLen(ptr noundef %0) #25
  %4 = load ptr, ptr @ACLCommandCategories, align 8, !tbaa !9
  %5 = getelementptr inbounds nuw i8, ptr %4, i64 8
  %6 = load i64, ptr %5, align 8, !tbaa !15
  %.not13 = icmp eq i64 %6, 0
  br i1 %.not13, label %._crit_edge, label %.lr.ph

.lr.ph:                                           ; preds = %2
  %7 = getelementptr inbounds nuw i8, ptr %1, i64 120
  br label %9

._crit_edge.loopexit:                             ; preds = %18
  %8 = sext i32 %.1 to i64
  br label %._crit_edge

._crit_edge:                                      ; preds = %._crit_edge.loopexit, %2
  %.010.lcssa = phi i64 [ 0, %2 ], [ %8, %._crit_edge.loopexit ]
  tail call void @setDeferredSetLen(ptr noundef %0, ptr noundef %3, i64 noundef %.010.lcssa) #25
  ret void

9:                                                ; preds = %.lr.ph, %18
  %10 = phi ptr [ %4, %.lr.ph ], [ %19, %18 ]
  %indvars.iv = phi i64 [ 0, %.lr.ph ], [ %indvars.iv.next, %18 ]
  %11 = phi i64 [ %6, %.lr.ph ], [ %22, %18 ]
  %12 = phi ptr [ %4, %.lr.ph ], [ %20, %18 ]
  %.01014 = phi i32 [ 0, %.lr.ph ], [ %.1, %18 ]
  %13 = load i64, ptr %7, align 8, !tbaa !113
  %14 = and i64 %13, %11
  %.not12 = icmp eq i64 %14, 0
  br i1 %.not12, label %18, label %15

15:                                               ; preds = %9
  %16 = load ptr, ptr %12, align 8, !tbaa !12
  tail call void (ptr, ptr, ...) @addReplyStatusFormat(ptr noundef %0, ptr noundef nonnull @.str.203, ptr noundef %16) #25
  %17 = add nsw i32 %.01014, 1
  %.pre = load ptr, ptr @ACLCommandCategories, align 8, !tbaa !9
  br label %18

18:                                               ; preds = %9, %15
  %19 = phi ptr [ %.pre, %15 ], [ %10, %9 ]
  %.1 = phi i32 [ %17, %15 ], [ %.01014, %9 ]
  %indvars.iv.next = add nuw nsw i64 %indvars.iv, 1
  %20 = getelementptr inbounds nuw %struct.ACLCategoryItem, ptr %19, i64 %indvars.iv.next
  %21 = getelementptr inbounds nuw i8, ptr %20, i64 8
  %22 = load i64, ptr %21, align 8, !tbaa !15
  %.not = icmp eq i64 %22, 0
  br i1 %.not, label %._crit_edge.loopexit, label %9, !llvm.loop !234
}